; Function Attrs: nounwind uwtable
define noalias noundef ptr @Acb_SignalNames(ptr noundef readonly captures(none) %0, ptr noundef readonly captures(none) %1) local_unnamed_addr #0 {
  %3 = getelementptr i8, ptr %1, i64 4
  %.val9 = load i32, ptr %3, align 4
  %4 = tail call noalias dereferenceable_or_null(16) ptr @malloc(i64 noundef 16) #29
  %5 = add i32 %.val9, -1
  %or.cond.i = icmp ult i32 %5, 7
  %spec.store.select.i = select i1 %or.cond.i, i32 8, i32 %.val9
  %6 = getelementptr inbounds nuw i8, ptr %4, i64 4
  store i32 0, ptr %6, align 4
  store i32 %spec.store.select.i, ptr %4, align 8
  %.not.i = icmp eq i32 %spec.store.select.i, 0
  br i1 %.not.i, label %Vec_PtrAlloc.exit, label %7

7:                                                ; preds = %2
  %8 = sext i32 %spec.store.select.i to i64
  %9 = shl nsw i64 %8, 3
  %10 = tail call noalias ptr @malloc(i64 noundef %9) #29
  br label %Vec_PtrAlloc.exit

Vec_PtrAlloc.exit:                                ; preds = %2, %7
  %11 = phi ptr [ %10, %7 ], [ null, %2 ]
  %12 = getelementptr inbounds nuw i8, ptr %4, i64 8
  store ptr %11, ptr %12, align 8
  %13 = icmp sgt i32 %.val9, 0
  br i1 %13, label %.lr.ph, label %.critedge

.lr.ph:                                           ; preds = %Vec_PtrAlloc.exit
  %14 = getelementptr i8, ptr %1, i64 8
  %15 = getelementptr i8, ptr %0, i64 232
  br label %16

16:                                               ; preds = %.lr.ph, %Vec_PtrPush.exit
  %indvars.iv = phi i64 [ 0, %.lr.ph ], [ %indvars.iv.next, %Vec_PtrPush.exit ]
  %.val10 = load ptr, ptr %14, align 8
  %17 = getelementptr inbounds nuw i32, ptr %.val10, i64 %indvars.iv
  %18 = load i32, ptr %17, align 4
  %.val11 = load ptr, ptr %0, align 8
  %.val12 = load ptr, ptr %15, align 8
  %19 = getelementptr i8, ptr %.val11, i64 16
  %.val11.val = load ptr, ptr %19, align 8
  %20 = sext i32 %18 to i64
  %21 = getelementptr inbounds i32, ptr %.val12, i64 %20
  %22 = load i32, ptr %21, align 4
  %23 = tail call ptr @Abc_NamStr(ptr noundef %.val11.val, i32 noundef %22) #31
  %24 = load i32, ptr %6, align 4
  %25 = load i32, ptr %4, align 8
  %26 = icmp eq i32 %24, %25
  br i1 %26, label %27, label %.Vec_PtrGrow.exit11_crit_edge.i

.Vec_PtrGrow.exit11_crit_edge.i:                  ; preds = %16
  %.pre.i = load ptr, ptr %12, align 8
  br label %Vec_PtrPush.exit

27:                                               ; preds = %16
  %28 = icmp slt i32 %24, 16
  br i1 %28, label %29, label %36

29:                                               ; preds = %27
  %30 = load ptr, ptr %12, align 8
  %.not9.i.i = icmp eq ptr %30, null
  br i1 %.not9.i.i, label %33, label %31

31:                                               ; preds = %29
  %32 = tail call dereferenceable_or_null(128) ptr @realloc(ptr noundef nonnull %30, i64 noundef 128) #30
  br label %Vec_PtrGrow.exit.i

33:                                               ; preds = %29
  %34 = tail call noalias dereferenceable_or_null(128) ptr @malloc(i64 noundef 128) #29
  br label %Vec_PtrGrow.exit.i

Vec_PtrGrow.exit.i:                               ; preds = %33, %31
  %35 = phi ptr [ %32, %31 ], [ %34, %33 ]
  store ptr %35, ptr %12, align 8
  store i32 16, ptr %4, align 8
  br label %Vec_PtrPush.exit

36:                                               ; preds = %27
  %37 = shl nuw nsw i32 %24, 1
  %38 = load ptr, ptr %12, align 8
  %.not9.i10.i = icmp eq ptr %38, null
  %39 = zext nneg i32 %37 to i64
  %40 = shl nuw nsw i64 %39, 3
  br i1 %.not9.i10.i, label %43, label %41

41:                                               ; preds = %36
  %42 = tail call ptr @realloc(ptr noundef nonnull %38, i64 noundef %40) #30
  br label %45

43:                                               ; preds = %36
  %44 = tail call noalias ptr @malloc(i64 noundef %40) #29
  br label %45

45:                                               ; preds = %43, %41
  %46 = phi ptr [ %42, %41 ], [ %44, %43 ]
  store ptr %46, ptr %12, align 8
  store i32 %37, ptr %4, align 8
  br label %Vec_PtrPush.exit

Vec_PtrPush.exit:                                 ; preds = %.Vec_PtrGrow.exit11_crit_edge.i, %Vec_PtrGrow.exit.i, %45
  %47 = phi ptr [ %.pre.i, %.Vec_PtrGrow.exit11_crit_edge.i ], [ %46, %45 ], [ %35, %Vec_PtrGrow.exit.i ]
  %48 = add nsw i32 %24, 1
  store i32 %48, ptr %6, align 4
  %49 = sext i32 %24 to i64
  %50 = getelementptr inbounds ptr, ptr %47, i64 %49
  store ptr %23, ptr %50, align 8
  %indvars.iv.next = add nuw nsw i64 %indvars.iv, 1
  %.val = load i32, ptr %3, align 4
  %51 = sext i32 %.val to i64
  %52 = icmp slt i64 %indvars.iv.next, %51
  br i1 %52, label %16, label %.critedge, !llvm.loop !148

.critedge:                                        ; preds = %Vec_PtrPush.exit, %Vec_PtrAlloc.exit
  ret ptr %4
}